target datalayout = "e-m:e-p270:32:32-p271:32:32-p272:64:64-i64:64-i128:128-f80:128-n8:16:32:64-S128"
target triple = "x86_64-pc-linux-gnu"

%struct.gmx_ana_selmethod_t = type { ptr, i32, i32, i32, ptr, ptr, ptr, ptr, ptr, ptr, ptr, ptr, ptr, %struct.gmx_ana_selmethod_help_t }
%struct.gmx_ana_selmethod_help_t = type { ptr, ptr, i32, ptr }
%"class.std::__cxx11::basic_string" = type { %"struct.std::__cxx11::basic_string<char>::_Alloc_hider", i64, %union.anon }
%"struct.std::__cxx11::basic_string<char>::_Alloc_hider" = type { ptr }
%union.anon = type { i64, [8 x i8] }
%"class.std::shared_ptr.0" = type { %"class.std::__shared_ptr.1" }
%"class.std::__shared_ptr.1" = type { ptr, %"class.std::__shared_count" }
%"class.std::__shared_count" = type { ptr }
%"struct.gmx::SelectionLocation" = type { i32, i32 }
%"class.gmx::SelectionTreeElement" = type { i32, %struct.gmx_ana_selvalue_t, ptr, i32, %union.anon.6, ptr, ptr, %"class.std::shared_ptr.0", %"class.std::shared_ptr.0", %"class.std::__cxx11::basic_string", %"struct.gmx::SelectionLocation" }
%struct.gmx_ana_selvalue_t = type { i32, i32, %union.anon.5, i32 }
%union.anon.5 = type { ptr }
%union.anon.6 = type { %struct.anon.7 }
%struct.anon.7 = type { ptr, ptr, ptr, ptr }

@.str.4 = private unnamed_addr constant [129 x i8] c"generated/home/dtcxzyw/WorkSpace/Projects/compilers/llvm-opt-benchmark/bench/gromacs/gromacs/src/gromacs/selection/parsetree.cpp\00", align 1
@.str.5 = private unnamed_addr constant [1 x i8] zeroinitializer, align 1
@.str.9 = private unnamed_addr constant [19 x i8] c"sel->u.expr.method\00", align 1

; Function Attrs: mustprogress nounwind uwtable
define linkonce_odr noundef i64 @_ZNSt11char_traitsIcE6lengthEPKc(ptr noundef %0) #4 comdat align 2 {
  %2 = alloca ptr, align 8
  store ptr %0, ptr %2, align 8, !tbaa !30
  %3 = load ptr, ptr %2, align 8, !tbaa !30
  %4 = call i64 @strlen(ptr noundef %3) #20
  ret i64 %4
}

; Function Attrs: mustprogress nounwind uwtable
define available_externally noundef i64 @_ZNKSt7__cxx1112basic_stringIcSt11char_traitsIcESaIcEE4sizeEv(ptr noundef nonnull align 8 dereferenceable(32) %0) #4 align 2 {
  %2 = alloca ptr, align 8
  store ptr %0, ptr %2, align 8, !tbaa !16
  %3 = load ptr, ptr %2, align 8
  %4 = getelementptr inbounds nuw %"class.std::__cxx11::basic_string", ptr %3, i32 0, i32 1
  %5 = load i64, ptr %4, align 8, !tbaa !28
  ret i64 %5
}

; Function Attrs: mustprogress uwtable
define available_externally noundef nonnull align 8 dereferenceable(32) ptr @_ZNSt7__cxx1112basic_stringIcSt11char_traitsIcESaIcEE6assignEPKc(ptr noundef nonnull align 8 dereferenceable(32) %0, ptr noundef %1) #0 align 2 {
  %3 = alloca ptr, align 8
  %4 = alloca ptr, align 8
  store ptr %0, ptr %3, align 8, !tbaa !16
  store ptr %1, ptr %4, align 8, !tbaa !30
  %5 = load ptr, ptr %3, align 8
  %6 = call noundef i64 @_ZNKSt7__cxx1112basic_stringIcSt11char_traitsIcESaIcEE4sizeEv(ptr noundef nonnull align 8 dereferenceable(32) %5) #20
  %7 = load ptr, ptr %4, align 8, !tbaa !30
  %8 = load ptr, ptr %4, align 8, !tbaa !30
  %9 = call noundef i64 @_ZNSt11char_traitsIcE6lengthEPKc(ptr noundef %8)
  %10 = call noundef nonnull align 8 dereferenceable(32) ptr @_ZNSt7__cxx1112basic_stringIcSt11char_traitsIcESaIcEE10_M_replaceEmmPKcm(ptr noundef nonnull align 8 dereferenceable(32) %5, i64 noundef 0, i64 noundef %6, ptr noundef %7, i64 noundef %9)
  ret ptr %10
}

; Function Attrs: mustprogress nounwind uwtable
define linkonce_odr noundef ptr @_ZNKSt12__shared_ptrIN3gmx20SelectionTreeElementELN9__gnu_cxx12_Lock_policyE2EE3getEv(ptr noundef nonnull align 8 dereferenceable(16) %0) #4 comdat align 2 {
  %2 = alloca ptr, align 8
  store ptr %0, ptr %2, align 8, !tbaa !58
  %3 = load ptr, ptr %2, align 8
  %4 = getelementptr inbounds nuw %"class.std::__shared_ptr.1", ptr %3, i32 0, i32 0
  %5 = load ptr, ptr %4, align 8, !tbaa !60
  ret ptr %5
}

; Function Attrs: mustprogress uwtable
define available_externally noundef nonnull align 8 dereferenceable(32) ptr @_ZNSt7__cxx1112basic_stringIcSt11char_traitsIcESaIcEEaSEPKc(ptr noundef nonnull align 8 dereferenceable(32) %0, ptr noundef %1) #0 align 2 {
  %3 = alloca ptr, align 8
  %4 = alloca ptr, align 8
  store ptr %0, ptr %3, align 8, !tbaa !16
  store ptr %1, ptr %4, align 8, !tbaa !30
  %5 = load ptr, ptr %3, align 8
  %6 = load ptr, ptr %4, align 8, !tbaa !30
  %7 = call noundef nonnull align 8 dereferenceable(32) ptr @_ZNSt7__cxx1112basic_stringIcSt11char_traitsIcESaIcEE6assignEPKc(ptr noundef nonnull align 8 dereferenceable(32) %5, ptr noundef %6)
  ret ptr %7
}

; Function Attrs: mustprogress nounwind uwtable
define linkonce_odr noundef ptr @_ZNKSt19__shared_ptr_accessIN3gmx20SelectionTreeElementELN9__gnu_cxx12_Lock_policyE2ELb0ELb0EE6_M_getEv(ptr noundef nonnull align 1 dereferenceable(1) %0) #4 comdat align 2 {
  %2 = alloca ptr, align 8
  store ptr %0, ptr %2, align 8, !tbaa !73
  %3 = load ptr, ptr %2, align 8
  %4 = call noundef ptr @_ZNKSt12__shared_ptrIN3gmx20SelectionTreeElementELN9__gnu_cxx12_Lock_policyE2EE3getEv(ptr noundef nonnull align 8 dereferenceable(16) %3) #20
  ret ptr %4
}

; Function Attrs: inlinehint mustprogress uwtable
define internal void @_ZL13gmx_snew_implI19gmx_ana_selmethod_tEvPKcS2_iRPT_m(ptr noundef %0, ptr noundef %1, i32 noundef %2, ptr noundef nonnull align 8 dereferenceable(8) %3, i64 noundef %4) #10 {
  %6 = alloca ptr, align 8
  %7 = alloca ptr, align 8
  %8 = alloca i32, align 4
  %9 = alloca ptr, align 8
  %10 = alloca i64, align 8
  store ptr %0, ptr %6, align 8, !tbaa !30
  store ptr %1, ptr %7, align 8, !tbaa !30
  store i32 %2, ptr %8, align 4, !tbaa !55
  store ptr %3, ptr %9, align 8, !tbaa !227
  store i64 %4, ptr %10, align 8, !tbaa !29
  %11 = load ptr, ptr %6, align 8, !tbaa !30
  %12 = load ptr, ptr %7, align 8, !tbaa !30
  %13 = load i32, ptr %8, align 4, !tbaa !55
  %14 = load i64, ptr %10, align 8, !tbaa !29
  %15 = call noundef ptr @_Z11save_callocPKcS0_imm(ptr noundef %11, ptr noundef %12, i32 noundef %13, i64 noundef %14, i64 noundef 128)
  %16 = load ptr, ptr %9, align 8, !tbaa !227
  store ptr %15, ptr %16, align 8, !tbaa !223
  ret void
}

; Function Attrs: mustprogress uwtable
define linkonce_odr void @_ZN3gmx20SelectionTreeElement7setNameEPKc(ptr noundef nonnull align 8 dereferenceable(168) %0, ptr noundef %1) #0 comdat align 2 {
  %3 = alloca ptr, align 8
  %4 = alloca ptr, align 8
  store ptr %0, ptr %3, align 8, !tbaa !75
  store ptr %1, ptr %4, align 8, !tbaa !30
  %5 = load ptr, ptr %3, align 8
  %6 = load ptr, ptr %4, align 8, !tbaa !30
  %7 = icmp ne ptr %6, null
  br i1 %7, label %8, label %10

8:                                                ; preds = %2
  %9 = load ptr, ptr %4, align 8, !tbaa !30
  br label %11

10:                                               ; preds = %2
  br label %11

11:                                               ; preds = %10, %8
  %12 = phi ptr [ %9, %8 ], [ @.str.5, %10 ]
  %13 = getelementptr inbounds nuw %"class.gmx::SelectionTreeElement", ptr %5, i32 0, i32 9
  %14 = call noundef nonnull align 8 dereferenceable(32) ptr @_ZNSt7__cxx1112basic_stringIcSt11char_traitsIcESaIcEEaSEPKc(ptr noundef nonnull align 8 dereferenceable(32) %13, ptr noundef %12)
  ret void
}

; Function Attrs: mustprogress nounwind uwtable
define linkonce_odr noundef ptr @_ZNKSt19__shared_ptr_accessIN3gmx20SelectionTreeElementELN9__gnu_cxx12_Lock_policyE2ELb0ELb0EEptEv(ptr noundef nonnull align 1 dereferenceable(1) %0) #4 comdat align 2 {
  %2 = alloca ptr, align 8
  store ptr %0, ptr %2, align 8, !tbaa !73
  %3 = load ptr, ptr %2, align 8
  %4 = call noundef ptr @_ZNKSt19__shared_ptr_accessIN3gmx20SelectionTreeElementELN9__gnu_cxx12_Lock_policyE2ELb0ELb0EE6_M_getEv(ptr noundef nonnull align 1 dereferenceable(1) %3) #20
  ret ptr %4
}

; Function Attrs: mustprogress uwtable
define void @_Z23_gmx_selelem_set_methodRKSt10shared_ptrIN3gmx20SelectionTreeElementEEP19gmx_ana_selmethod_tPv(ptr noundef nonnull align 8 dereferenceable(16) %0, ptr noundef %1, ptr noundef %2) #0 {
  %4 = alloca ptr, align 8
  %5 = alloca ptr, align 8
  %6 = alloca ptr, align 8
  store ptr %0, ptr %4, align 8, !tbaa !56
  store ptr %1, ptr %5, align 8, !tbaa !223
  store ptr %2, ptr %6, align 8, !tbaa !4
  %7 = load ptr, ptr %4, align 8, !tbaa !56
  %8 = load ptr, ptr %5, align 8, !tbaa !223
  %9 = getelementptr inbounds nuw %struct.gmx_ana_selmethod_t, ptr %8, i32 0, i32 1
  %10 = load i32, ptr %9, align 8, !tbaa !225
  call void @_Z22_gmx_selelem_set_vtypeRKSt10shared_ptrIN3gmx20SelectionTreeElementEE12e_selvalue_t(ptr noundef nonnull align 8 dereferenceable(16) %7, i32 noundef %10)
  %11 = load ptr, ptr %4, align 8, !tbaa !56
  %12 = call noundef ptr @_ZNKSt19__shared_ptr_accessIN3gmx20SelectionTreeElementELN9__gnu_cxx12_Lock_policyE2ELb0ELb0EEptEv(ptr noundef nonnull align 1 dereferenceable(1) %11) #20
  %13 = load ptr, ptr %5, align 8, !tbaa !223
  %14 = getelementptr inbounds nuw %struct.gmx_ana_selmethod_t, ptr %13, i32 0, i32 0
  %15 = load ptr, ptr %14, align 8, !tbaa !226
  call void @_ZN3gmx20SelectionTreeElement7setNameEPKc(ptr noundef nonnull align 8 dereferenceable(168) %12, ptr noundef %15)
  %16 = load ptr, ptr %4, align 8, !tbaa !56
  %17 = call noundef ptr @_ZNKSt19__shared_ptr_accessIN3gmx20SelectionTreeElementELN9__gnu_cxx12_Lock_policyE2ELb0ELb0EEptEv(ptr noundef nonnull align 1 dereferenceable(1) %16) #20
  %18 = getelementptr inbounds nuw %"class.gmx::SelectionTreeElement", ptr %17, i32 0, i32 4
  %19 = getelementptr inbounds nuw %struct.anon.7, ptr %18, i32 0, i32 0
  call void @_ZL13gmx_snew_implI19gmx_ana_selmethod_tEvPKcS2_iRPT_m(ptr noundef @.str.9, ptr noundef @.str.4, i32 noundef 557, ptr noundef nonnull align 8 dereferenceable(8) %19, i64 noundef 1)
  %20 = load ptr, ptr %4, align 8, !tbaa !56
  %21 = call noundef ptr @_ZNKSt19__shared_ptr_accessIN3gmx20SelectionTreeElementELN9__gnu_cxx12_Lock_policyE2ELb0ELb0EEptEv(ptr noundef nonnull align 1 dereferenceable(1) %20) #20
  %22 = getelementptr inbounds nuw %"class.gmx::SelectionTreeElement", ptr %21, i32 0, i32 4
  %23 = getelementptr inbounds nuw %struct.anon.7, ptr %22, i32 0, i32 0
  %24 = load ptr, ptr %23, align 8, !tbaa !27
  %25 = load ptr, ptr %5, align 8, !tbaa !223
  call void @llvm.memcpy.p0.p0.i64(ptr align 8 %24, ptr align 8 %25, i64 128, i1 false)
  %26 = load ptr, ptr %4, align 8, !tbaa !56
  %27 = load ptr, ptr %6, align 8, !tbaa !4
  call void @_Z31_gmx_selelem_init_method_paramsRKSt10shared_ptrIN3gmx20SelectionTreeElementEEPv(ptr noundef nonnull align 8 dereferenceable(16) %26, ptr noundef %27)
  ret void
}