; Function Attrs: mustprogress uwtable
define void @_Z23_gmx_selelem_set_methodRKSt10shared_ptrIN3gmx20SelectionTreeElementEEP19gmx_ana_selmethod_tPv(ptr noundef nonnull align 8 dereferenceable(16) %0, ptr noundef readonly captures(none) %1, ptr noundef %2) local_unnamed_addr #0 {
  %4 = getelementptr inbounds nuw i8, ptr %1, i64 8
  %5 = load i32, ptr %4, align 8, !tbaa !93
  tail call void @_Z22_gmx_selelem_set_vtypeRKSt10shared_ptrIN3gmx20SelectionTreeElementEE12e_selvalue_t(ptr noundef nonnull align 8 dereferenceable(16) %0, i32 noundef %5)
  %6 = load ptr, ptr %0, align 8, !tbaa !30
  %7 = load ptr, ptr %1, align 8, !tbaa !94
  %.not.i = icmp eq ptr %7, null
  %8 = select i1 %.not.i, ptr @.str.5, ptr %7
  %9 = getelementptr inbounds nuw i8, ptr %6, i64 128
  %10 = getelementptr inbounds nuw i8, ptr %6, i64 136
  %11 = load i64, ptr %10, align 8, !tbaa !15
  %12 = tail call noundef i64 @strlen(ptr noundef nonnull dereferenceable(1) %8) #24
  %13 = tail call noundef nonnull align 8 dereferenceable(32) ptr @_ZNSt7__cxx1112basic_stringIcSt11char_traitsIcESaIcEE10_M_replaceEmmPKcm(ptr noundef nonnull align 8 dereferenceable(32) %9, i64 noundef 0, i64 noundef %11, ptr noundef nonnull %8, i64 noundef %12)
  %14 = load ptr, ptr %0, align 8, !tbaa !30
  %15 = getelementptr inbounds nuw i8, ptr %14, i64 48
  %16 = tail call noundef ptr @_Z11save_callocPKcS0_imm(ptr noundef nonnull @.str.9, ptr noundef nonnull @.str.4, i32 noundef 557, i64 noundef 1, i64 noundef 128)
  store ptr %16, ptr %15, align 8, !tbaa !95
  %17 = load ptr, ptr %0, align 8, !tbaa !30
  %18 = getelementptr inbounds nuw i8, ptr %17, i64 48
  %19 = load ptr, ptr %18, align 8, !tbaa !16
  tail call void @llvm.memcpy.p0.p0.i64(ptr noundef nonnull align 8 dereferenceable(128) %19, ptr noundef nonnull align 8 dereferenceable(128) %1, i64 128, i1 false)
  tail call void @_Z31_gmx_selelem_init_method_paramsRKSt10shared_ptrIN3gmx20SelectionTreeElementEEPv(ptr noundef nonnull align 8 dereferenceable(16) %0, ptr noundef %2)
  ret void
}